target datalayout = "e-m:e-p270:32:32-p271:32:32-p272:64:64-i64:64-i128:128-f80:128-n8:16:32:64-S128"
target triple = "x86_64-pc-linux-gnu"

%struct.AVProbeData = type { ptr, ptr, i32, ptr }

@.str.3 = private unnamed_addr constant [9 x i8] c"97012000\00", align 1
@.str.4 = private unnamed_addr constant [9 x i8] c"00052200\00", align 1

; Function Attrs: nounwind uwtable
define internal i32 @vqf_probe(ptr noundef %0) #0 {
  %2 = alloca i32, align 4
  %3 = alloca ptr, align 8
  store ptr %0, ptr %3, align 8, !tbaa !4
  %4 = load ptr, ptr %3, align 8, !tbaa !4
  %5 = getelementptr inbounds nuw %struct.AVProbeData, ptr %4, i32 0, i32 1
  %6 = load ptr, ptr %5, align 8, !tbaa !9
  %7 = load i32, ptr %6, align 1, !tbaa !13
  %8 = icmp ne i32 %7, 1313429332
  br i1 %8, label %9, label %10

9:                                                ; preds = %1
  store i32 0, ptr %2, align 4
  br label %35

10:                                               ; preds = %1
  %11 = load ptr, ptr %3, align 8, !tbaa !4
  %12 = getelementptr inbounds nuw %struct.AVProbeData, ptr %11, i32 0, i32 1
  %13 = load ptr, ptr %12, align 8, !tbaa !9
  %14 = getelementptr inbounds i8, ptr %13, i64 4
  %15 = call i32 @memcmp(ptr noundef %14, ptr noundef @.str.3, i64 noundef 8) #9
  %16 = icmp ne i32 %15, 0
  br i1 %16, label %18, label %17

17:                                               ; preds = %10
  store i32 100, ptr %2, align 4
  br label %35

18:                                               ; preds = %10
  %19 = load ptr, ptr %3, align 8, !tbaa !4
  %20 = getelementptr inbounds nuw %struct.AVProbeData, ptr %19, i32 0, i32 1
  %21 = load ptr, ptr %20, align 8, !tbaa !9
  %22 = getelementptr inbounds i8, ptr %21, i64 4
  %23 = call i32 @memcmp(ptr noundef %22, ptr noundef @.str.4, i64 noundef 8) #9
  %24 = icmp ne i32 %23, 0
  br i1 %24, label %26, label %25

25:                                               ; preds = %18
  store i32 100, ptr %2, align 4
  br label %35

26:                                               ; preds = %18
  %27 = load ptr, ptr %3, align 8, !tbaa !4
  %28 = getelementptr inbounds nuw %struct.AVProbeData, ptr %27, i32 0, i32 1
  %29 = load ptr, ptr %28, align 8, !tbaa !9
  %30 = getelementptr inbounds i8, ptr %29, i64 12
  %31 = load i32, ptr %30, align 1, !tbaa !13
  %32 = icmp ugt i32 %31, 134217728
  br i1 %32, label %33, label %34

33:                                               ; preds = %26
  store i32 25, ptr %2, align 4
  br label %35

34:                                               ; preds = %26
  store i32 50, ptr %2, align 4
  br label %35

35:                                               ; preds = %34, %33, %25, %17, %9
  %36 = load i32, ptr %2, align 4
  ret i32 %36
}