; Function Attrs: mustprogress nofree norecurse nounwind willreturn memory(read, inaccessiblemem: none) uwtable
define internal range(i32 0, 101) i32 @vqf_probe(ptr noundef readonly captures(none) %0) #0 {
  %2 = getelementptr inbounds nuw i8, ptr %0, i64 8
  %3 = load ptr, ptr %2, align 8, !tbaa !4
  %4 = load i32, ptr %3, align 1, !tbaa !11
  %.not = icmp eq i32 %4, 1313429332
  br i1 %.not, label %5, label %12

5:                                                ; preds = %1
  %6 = getelementptr inbounds nuw i8, ptr %3, i64 4
  %bcmp = tail call i32 @bcmp(ptr noundef nonnull dereferenceable(8) %6, ptr noundef nonnull dereferenceable(8) @.str.3, i64 8)
  %.not4 = icmp eq i32 %bcmp, 0
  br i1 %.not4, label %12, label %7

7:                                                ; preds = %5
  %bcmp5 = tail call i32 @bcmp(ptr noundef nonnull dereferenceable(8) %6, ptr noundef nonnull dereferenceable(8) @.str.4, i64 8)
  %.not6 = icmp eq i32 %bcmp5, 0
  br i1 %.not6, label %12, label %8

8:                                                ; preds = %7
  %9 = getelementptr inbounds nuw i8, ptr %3, i64 12
  %10 = load i32, ptr %9, align 1, !tbaa !11
  %11 = icmp ugt i32 %10, 134217728
  %. = select i1 %11, i32 25, i32 50
  br label %12

12:                                               ; preds = %8, %7, %5, %1
  %.0 = phi i32 [ 0, %1 ], [ 100, %5 ], [ 100, %7 ], [ %., %8 ]
  ret i32 %.0
}